; Function Attrs: mustprogress uwtable
define void @_ZN19QualityMapperDialog16meshColorPreviewEv(ptr nocapture noundef nonnull readonly align 8 dereferenceable(824) %0) local_unnamed_addr #9 align 2 {
  %2 = getelementptr inbounds i8, ptr %0, i64 568
  %3 = load ptr, ptr %2, align 8
  %4 = tail call noundef zeroext i1 @_ZNK15QAbstractButton9isCheckedEv(ptr noundef nonnull align 8 dereferenceable(48) %3)
  br i1 %4, label %5, label %6

5:                                                ; preds = %1
  tail call void @_ZN19QualityMapperDialog22on_applyButton_clickedEv(ptr noundef nonnull align 8 dereferenceable(824) %0)
  br label %6

6:                                                ; preds = %5, %1
  ret void
}